target datalayout = "e-m:e-p270:32:32-p271:32:32-p272:64:64-i64:64-i128:128-f80:128-n8:16:32:64-S128"
target triple = "x86_64-pc-linux-gnu"

%struct.ISzAlloc = type { ptr, ptr }
%struct._CSzState = type { ptr, i64 }

; Function Attrs: nounwind uwtable
define internal i32 @SzReadBoolVector(ptr noundef %0, i64 noundef %1, ptr noundef %2, ptr noundef %3) #0 {
  %5 = alloca i32, align 4
  %6 = alloca ptr, align 8
  %7 = alloca i64, align 8
  %8 = alloca ptr, align 8
  %9 = alloca ptr, align 8
  %10 = alloca i8, align 1
  %11 = alloca i8, align 1
  %12 = alloca i64, align 8
  %13 = alloca i32, align 4
  store ptr %0, ptr %6, align 8
  store i64 %1, ptr %7, align 8
  store ptr %2, ptr %8, align 8
  store ptr %3, ptr %9, align 8
  store i8 0, ptr %10, align 1
  store i8 0, ptr %11, align 1
  %14 = load ptr, ptr %8, align 8
  %15 = load ptr, ptr %14, align 8
  %16 = icmp ne ptr %15, null
  br i1 %16, label %17, label %18

17:                                               ; preds = %4
  store i32 11, ptr %5, align 4
  br label %73

18:                                               ; preds = %4
  %19 = load i64, ptr %7, align 8
  %20 = icmp eq i64 %19, 0
  br i1 %20, label %21, label %23

21:                                               ; preds = %18
  %22 = load ptr, ptr %8, align 8
  store ptr null, ptr %22, align 8
  br label %35

23:                                               ; preds = %18
  %24 = load ptr, ptr %9, align 8
  %25 = getelementptr inbounds %struct.ISzAlloc, ptr %24, i32 0, i32 0
  %26 = load ptr, ptr %25, align 8
  %27 = load ptr, ptr %9, align 8
  %28 = load i64, ptr %7, align 8
  %29 = mul i64 %28, 1
  %30 = call ptr %26(ptr noundef %27, i64 noundef %29)
  %31 = load ptr, ptr %8, align 8
  store ptr %30, ptr %31, align 8
  %32 = icmp eq ptr %30, null
  br i1 %32, label %33, label %34

33:                                               ; preds = %23
  store i32 2, ptr %5, align 4
  br label %73

34:                                               ; preds = %23
  br label %35

35:                                               ; preds = %34, %21
  store i64 0, ptr %12, align 8
  br label %36

36:                                               ; preds = %69, %35
  %37 = load i64, ptr %12, align 8
  %38 = load i64, ptr %7, align 8
  %39 = icmp ult i64 %37, %38
  br i1 %39, label %40, label %72

40:                                               ; preds = %36
  %41 = load i8, ptr %11, align 1
  %42 = zext i8 %41 to i32
  %43 = icmp eq i32 %42, 0
  br i1 %43, label %44, label %52

44:                                               ; preds = %40
  %45 = load ptr, ptr %6, align 8
  %46 = call i32 @SzReadByte(ptr noundef %45, ptr noundef %10)
  store i32 %46, ptr %13, align 4
  %47 = load i32, ptr %13, align 4
  %48 = icmp ne i32 %47, 0
  br i1 %48, label %49, label %51

49:                                               ; preds = %44
  %50 = load i32, ptr %13, align 4
  store i32 %50, ptr %5, align 4
  br label %73

51:                                               ; preds = %44
  store i8 -128, ptr %11, align 1
  br label %52

52:                                               ; preds = %51, %40
  %53 = load i8, ptr %10, align 1
  %54 = zext i8 %53 to i32
  %55 = load i8, ptr %11, align 1
  %56 = zext i8 %55 to i32
  %57 = and i32 %54, %56
  %58 = icmp ne i32 %57, 0
  %59 = select i1 %58, i32 1, i32 0
  %60 = trunc i32 %59 to i8
  %61 = load ptr, ptr %8, align 8
  %62 = load ptr, ptr %61, align 8
  %63 = load i64, ptr %12, align 8
  %64 = getelementptr inbounds i8, ptr %62, i64 %63
  store i8 %60, ptr %64, align 1
  %65 = load i8, ptr %11, align 1
  %66 = zext i8 %65 to i32
  %67 = ashr i32 %66, 1
  %68 = trunc i32 %67 to i8
  store i8 %68, ptr %11, align 1
  br label %69

69:                                               ; preds = %52
  %70 = load i64, ptr %12, align 8
  %71 = add i64 %70, 1
  store i64 %71, ptr %12, align 8
  br label %36

72:                                               ; preds = %36
  store i32 0, ptr %5, align 4
  br label %73

73:                                               ; preds = %72, %49, %33, %17
  %74 = load i32, ptr %5, align 4
  ret i32 %74
}

; Function Attrs: nounwind uwtable
define internal i32 @SzReadByte(ptr noundef %0, ptr noundef %1) #0 {
  %3 = alloca i32, align 4
  %4 = alloca ptr, align 8
  %5 = alloca ptr, align 8
  store ptr %0, ptr %4, align 8
  store ptr %1, ptr %5, align 8
  %6 = load ptr, ptr %4, align 8
  %7 = getelementptr inbounds %struct._CSzState, ptr %6, i32 0, i32 1
  %8 = load i64, ptr %7, align 8
  %9 = icmp eq i64 %8, 0
  br i1 %9, label %10, label %11

10:                                               ; preds = %2
  store i32 16, ptr %3, align 4
  br label %22

11:                                               ; preds = %2
  %12 = load ptr, ptr %4, align 8
  %13 = getelementptr inbounds %struct._CSzState, ptr %12, i32 0, i32 1
  %14 = load i64, ptr %13, align 8
  %15 = add i64 %14, -1
  store i64 %15, ptr %13, align 8
  %16 = load ptr, ptr %4, align 8
  %17 = getelementptr inbounds %struct._CSzState, ptr %16, i32 0, i32 0
  %18 = load ptr, ptr %17, align 8
  %19 = getelementptr inbounds i8, ptr %18, i32 1
  store ptr %19, ptr %17, align 8
  %20 = load i8, ptr %18, align 1
  %21 = load ptr, ptr %5, align 8
  store i8 %20, ptr %21, align 1
  store i32 0, ptr %3, align 4
  br label %22

22:                                               ; preds = %11, %10
  %23 = load i32, ptr %3, align 4
  ret i32 %23
}

; Function Attrs: nounwind uwtable
define internal i32 @SzReadUInt32(ptr noundef %0, ptr noundef %1) #0 {
  %3 = alloca i32, align 4
  %4 = alloca ptr, align 8
  %5 = alloca ptr, align 8
  %6 = alloca i32, align 4
  %7 = alloca i8, align 1
  %8 = alloca i32, align 4
  store ptr %0, ptr %4, align 8
  store ptr %1, ptr %5, align 8
  %9 = load ptr, ptr %5, align 8
  store i32 0, ptr %9, align 4
  store i32 0, ptr %6, align 4
  br label %10

10:                                               ; preds = %29, %2
  %11 = load i32, ptr %6, align 4
  %12 = icmp slt i32 %11, 4
  br i1 %12, label %13, label %32

13:                                               ; preds = %10
  %14 = load ptr, ptr %4, align 8
  %15 = call i32 @SzReadByte(ptr noundef %14, ptr noundef %7)
  store i32 %15, ptr %8, align 4
  %16 = load i32, ptr %8, align 4
  %17 = icmp ne i32 %16, 0
  br i1 %17, label %18, label %20

18:                                               ; preds = %13
  %19 = load i32, ptr %8, align 4
  store i32 %19, ptr %3, align 4
  br label %33

20:                                               ; preds = %13
  %21 = load i8, ptr %7, align 1
  %22 = zext i8 %21 to i32
  %23 = load i32, ptr %6, align 4
  %24 = mul nsw i32 8, %23
  %25 = shl i32 %22, %24
  %26 = load ptr, ptr %5, align 8
  %27 = load i32, ptr %26, align 4
  %28 = or i32 %27, %25
  store i32 %28, ptr %26, align 4
  br label %29

29:                                               ; preds = %20
  %30 = load i32, ptr %6, align 4
  %31 = add nsw i32 %30, 1
  store i32 %31, ptr %6, align 4
  br label %10

32:                                               ; preds = %10
  store i32 0, ptr %3, align 4
  br label %33

33:                                               ; preds = %32, %18
  %34 = load i32, ptr %3, align 4
  ret i32 %34
}

; Function Attrs: nounwind uwtable
define internal i32 @SzReadBoolVector2(ptr noundef %0, i64 noundef %1, ptr noundef %2, ptr noundef %3) #0 {
  %5 = alloca i32, align 4
  %6 = alloca ptr, align 8
  %7 = alloca i64, align 8
  %8 = alloca ptr, align 8
  %9 = alloca ptr, align 8
  %10 = alloca i8, align 1
  %11 = alloca i64, align 8
  %12 = alloca i32, align 4
  store ptr %0, ptr %6, align 8
  store i64 %1, ptr %7, align 8
  store ptr %2, ptr %8, align 8
  store ptr %3, ptr %9, align 8
  %13 = load ptr, ptr %6, align 8
  %14 = call i32 @SzReadByte(ptr noundef %13, ptr noundef %10)
  store i32 %14, ptr %12, align 4
  %15 = load i32, ptr %12, align 4
  %16 = icmp ne i32 %15, 0
  br i1 %16, label %17, label %19

17:                                               ; preds = %4
  %18 = load i32, ptr %12, align 4
  store i32 %18, ptr %5, align 4
  br label %65

19:                                               ; preds = %4
  %20 = load i8, ptr %10, align 1
  %21 = zext i8 %20 to i32
  %22 = icmp eq i32 %21, 0
  br i1 %22, label %23, label %29

23:                                               ; preds = %19
  %24 = load ptr, ptr %6, align 8
  %25 = load i64, ptr %7, align 8
  %26 = load ptr, ptr %8, align 8
  %27 = load ptr, ptr %9, align 8
  %28 = call i32 @SzReadBoolVector(ptr noundef %24, i64 noundef %25, ptr noundef %26, ptr noundef %27)
  store i32 %28, ptr %5, align 4
  br label %65

29:                                               ; preds = %19
  %30 = load ptr, ptr %8, align 8
  %31 = load ptr, ptr %30, align 8
  %32 = icmp ne ptr %31, null
  br i1 %32, label %33, label %34

33:                                               ; preds = %29
  store i32 11, ptr %5, align 4
  br label %65

34:                                               ; preds = %29
  %35 = load i64, ptr %7, align 8
  %36 = icmp eq i64 %35, 0
  br i1 %36, label %37, label %39

37:                                               ; preds = %34
  %38 = load ptr, ptr %8, align 8
  store ptr null, ptr %38, align 8
  br label %51

39:                                               ; preds = %34
  %40 = load ptr, ptr %9, align 8
  %41 = getelementptr inbounds %struct.ISzAlloc, ptr %40, i32 0, i32 0
  %42 = load ptr, ptr %41, align 8
  %43 = load ptr, ptr %9, align 8
  %44 = load i64, ptr %7, align 8
  %45 = mul i64 %44, 1
  %46 = call ptr %42(ptr noundef %43, i64 noundef %45)
  %47 = load ptr, ptr %8, align 8
  store ptr %46, ptr %47, align 8
  %48 = icmp eq ptr %46, null
  br i1 %48, label %49, label %50

49:                                               ; preds = %39
  store i32 2, ptr %5, align 4
  br label %65

50:                                               ; preds = %39
  br label %51

51:                                               ; preds = %50, %37
  store i64 0, ptr %11, align 8
  br label %52

52:                                               ; preds = %61, %51
  %53 = load i64, ptr %11, align 8
  %54 = load i64, ptr %7, align 8
  %55 = icmp ult i64 %53, %54
  br i1 %55, label %56, label %64

56:                                               ; preds = %52
  %57 = load ptr, ptr %8, align 8
  %58 = load ptr, ptr %57, align 8
  %59 = load i64, ptr %11, align 8
  %60 = getelementptr inbounds i8, ptr %58, i64 %59
  store i8 1, ptr %60, align 1
  br label %61

61:                                               ; preds = %56
  %62 = load i64, ptr %11, align 8
  %63 = add i64 %62, 1
  store i64 %63, ptr %11, align 8
  br label %52

64:                                               ; preds = %52
  store i32 0, ptr %5, align 4
  br label %65

65:                                               ; preds = %64, %49, %33, %23, %17
  %66 = load i32, ptr %5, align 4
  ret i32 %66
}

; Function Attrs: nounwind uwtable
define internal i32 @SzReadHashDigests(ptr noundef %0, i64 noundef %1, ptr noundef %2, ptr noundef %3, ptr noundef %4) #0 {
  %6 = alloca i32, align 4
  %7 = alloca ptr, align 8
  %8 = alloca i64, align 8
  %9 = alloca ptr, align 8
  %10 = alloca ptr, align 8
  %11 = alloca ptr, align 8
  %12 = alloca i64, align 8
  %13 = alloca i32, align 4
  %14 = alloca i32, align 4
  store ptr %0, ptr %7, align 8
  store i64 %1, ptr %8, align 8
  store ptr %2, ptr %9, align 8
  store ptr %3, ptr %10, align 8
  store ptr %4, ptr %11, align 8
  %15 = load ptr, ptr %7, align 8
  %16 = load i64, ptr %8, align 8
  %17 = load ptr, ptr %9, align 8
  %18 = load ptr, ptr %11, align 8
  %19 = call i32 @SzReadBoolVector2(ptr noundef %15, i64 noundef %16, ptr noundef %17, ptr noundef %18)
  store i32 %19, ptr %13, align 4
  %20 = load i32, ptr %13, align 4
  %21 = icmp ne i32 %20, 0
  br i1 %21, label %22, label %24

22:                                               ; preds = %5
  %23 = load i32, ptr %13, align 4
  store i32 %23, ptr %6, align 4
  br label %75

24:                                               ; preds = %5
  %25 = load ptr, ptr %10, align 8
  %26 = load ptr, ptr %25, align 8
  %27 = icmp ne ptr %26, null
  br i1 %27, label %28, label %29

28:                                               ; preds = %24
  store i32 11, ptr %6, align 4
  br label %75

29:                                               ; preds = %24
  %30 = load i64, ptr %8, align 8
  %31 = icmp eq i64 %30, 0
  br i1 %31, label %32, label %34

32:                                               ; preds = %29
  %33 = load ptr, ptr %10, align 8
  store ptr null, ptr %33, align 8
  br label %46

34:                                               ; preds = %29
  %35 = load ptr, ptr %11, align 8
  %36 = getelementptr inbounds %struct.ISzAlloc, ptr %35, i32 0, i32 0
  %37 = load ptr, ptr %36, align 8
  %38 = load ptr, ptr %11, align 8
  %39 = load i64, ptr %8, align 8
  %40 = mul i64 %39, 4
  %41 = call ptr %37(ptr noundef %38, i64 noundef %40)
  %42 = load ptr, ptr %10, align 8
  store ptr %41, ptr %42, align 8
  %43 = icmp eq ptr %41, null
  br i1 %43, label %44, label %45

44:                                               ; preds = %34
  store i32 2, ptr %6, align 4
  br label %75

45:                                               ; preds = %34
  br label %46

46:                                               ; preds = %45, %32
  store i64 0, ptr %12, align 8
  br label %47

47:                                               ; preds = %71, %46
  %48 = load i64, ptr %12, align 8
  %49 = load i64, ptr %8, align 8
  %50 = icmp ult i64 %48, %49
  br i1 %50, label %51, label %74

51:                                               ; preds = %47
  %52 = load ptr, ptr %9, align 8
  %53 = load ptr, ptr %52, align 8
  %54 = load i64, ptr %12, align 8
  %55 = getelementptr inbounds i8, ptr %53, i64 %54
  %56 = load i8, ptr %55, align 1
  %57 = icmp ne i8 %56, 0
  br i1 %57, label %58, label %70

58:                                               ; preds = %51
  %59 = load ptr, ptr %7, align 8
  %60 = load ptr, ptr %10, align 8
  %61 = load ptr, ptr %60, align 8
  %62 = load i64, ptr %12, align 8
  %63 = getelementptr inbounds i32, ptr %61, i64 %62
  %64 = call i32 @SzReadUInt32(ptr noundef %59, ptr noundef %63)
  store i32 %64, ptr %14, align 4
  %65 = load i32, ptr %14, align 4
  %66 = icmp ne i32 %65, 0
  br i1 %66, label %67, label %69

67:                                               ; preds = %58
  %68 = load i32, ptr %14, align 4
  store i32 %68, ptr %6, align 4
  br label %75

69:                                               ; preds = %58
  br label %70

70:                                               ; preds = %69, %51
  br label %71

71:                                               ; preds = %70
  %72 = load i64, ptr %12, align 8
  %73 = add i64 %72, 1
  store i64 %73, ptr %12, align 8
  br label %47

74:                                               ; preds = %47
  store i32 0, ptr %6, align 4
  br label %75

75:                                               ; preds = %74, %67, %44, %28, %22
  %76 = load i32, ptr %6, align 4
  ret i32 %76
}