; Function Attrs: nounwind uwtable
define internal fastcc range(i32 0, 17) i32 @SzReadHashDigests(ptr noundef nonnull captures(none) %0, i64 noundef range(i64 0, 4294967296) %1, ptr noundef captures(none) %2, ptr noundef captures(none) %3, ptr noundef %4) unnamed_addr #0 {
  %6 = getelementptr inbounds nuw i8, ptr %0, i64 8
  %7 = load i64, ptr %6, align 8
  %8 = icmp eq i64 %7, 0
  br i1 %8, label %SzReadUInt32.exit, label %9

9:                                                ; preds = %5
  %10 = add i64 %7, -1
  store i64 %10, ptr %6, align 8
  %11 = load ptr, ptr %0, align 8
  %12 = getelementptr inbounds nuw i8, ptr %11, i64 1
  store ptr %12, ptr %0, align 8
  %13 = load i8, ptr %11, align 1
  %14 = icmp eq i8 %13, 0
  %15 = load ptr, ptr %2, align 8
  %.not.i.i = icmp eq ptr %15, null
  br i1 %14, label %16, label %38

16:                                               ; preds = %9
  br i1 %.not.i.i, label %17, label %SzReadUInt32.exit

17:                                               ; preds = %16
  %18 = icmp eq i64 %1, 0
  br i1 %18, label %SzReadBoolVector2.exit.thread34, label %19

19:                                               ; preds = %17
  %20 = load ptr, ptr %4, align 8
  %21 = tail call ptr %20(ptr noundef nonnull %4, i64 noundef range(i64 0, 4294967296) %1) #11
  store ptr %21, ptr %2, align 8
  %22 = icmp eq ptr %21, null
  br i1 %22, label %SzReadUInt32.exit, label %.lr.ph.i.i

.lr.ph.i.i:                                       ; preds = %19, %31
  %.01831.i.i = phi i64 [ %37, %31 ], [ 0, %19 ]
  %.01930.i.i = phi i8 [ %36, %31 ], [ 0, %19 ]
  %.02429.i.i = phi i8 [ %.125.i.i, %31 ], [ 0, %19 ]
  %23 = icmp eq i8 %.01930.i.i, 0
  br i1 %23, label %24, label %31

24:                                               ; preds = %.lr.ph.i.i
  %25 = load i64, ptr %6, align 8
  %26 = icmp eq i64 %25, 0
  br i1 %26, label %SzReadUInt32.exit, label %SzReadByte.exit.thread.i.i

SzReadByte.exit.thread.i.i:                       ; preds = %24
  %27 = add i64 %25, -1
  store i64 %27, ptr %6, align 8
  %28 = load ptr, ptr %0, align 8
  %29 = getelementptr inbounds nuw i8, ptr %28, i64 1
  store ptr %29, ptr %0, align 8
  %30 = load i8, ptr %28, align 1
  br label %31

31:                                               ; preds = %SzReadByte.exit.thread.i.i, %.lr.ph.i.i
  %.125.i.i = phi i8 [ %.02429.i.i, %.lr.ph.i.i ], [ %30, %SzReadByte.exit.thread.i.i ]
  %.1.i.i = phi i8 [ %.01930.i.i, %.lr.ph.i.i ], [ -128, %SzReadByte.exit.thread.i.i ]
  %32 = and i8 %.1.i.i, %.125.i.i
  %.not23.i.i = icmp ne i8 %32, 0
  %33 = zext i1 %.not23.i.i to i8
  %34 = load ptr, ptr %2, align 8
  %35 = getelementptr inbounds nuw i8, ptr %34, i64 %.01831.i.i
  store i8 %33, ptr %35, align 1
  %36 = lshr i8 %.1.i.i, 1
  %37 = add nuw nsw i64 %.01831.i.i, 1
  %exitcond.not.i.i = icmp eq i64 %37, %1
  br i1 %exitcond.not.i.i, label %SzReadBoolVector2.exit, label %.lr.ph.i.i

38:                                               ; preds = %9
  br i1 %.not.i.i, label %39, label %SzReadUInt32.exit

39:                                               ; preds = %38
  %40 = icmp eq i64 %1, 0
  br i1 %40, label %SzReadBoolVector2.exit.thread34, label %41

41:                                               ; preds = %39
  %42 = load ptr, ptr %4, align 8
  %43 = tail call ptr %42(ptr noundef nonnull %4, i64 noundef range(i64 0, 4294967296) %1) #11
  store ptr %43, ptr %2, align 8
  %44 = icmp eq ptr %43, null
  br i1 %44, label %SzReadUInt32.exit, label %.lr.ph.i

.lr.ph.i:                                         ; preds = %41, %.lr.ph.i
  %.01930.i = phi i64 [ %47, %.lr.ph.i ], [ 0, %41 ]
  %45 = load ptr, ptr %2, align 8
  %46 = getelementptr inbounds nuw i8, ptr %45, i64 %.01930.i
  store i8 1, ptr %46, align 1
  %47 = add nuw nsw i64 %.01930.i, 1
  %exitcond.not.i = icmp eq i64 %47, %1
  br i1 %exitcond.not.i, label %SzReadBoolVector2.exit, label %.lr.ph.i

SzReadBoolVector2.exit:                           ; preds = %.lr.ph.i, %31
  %48 = load ptr, ptr %3, align 8
  %.not27 = icmp eq ptr %48, null
  br i1 %.not27, label %50, label %SzReadUInt32.exit

SzReadBoolVector2.exit.thread34:                  ; preds = %17, %39
  store ptr null, ptr %2, align 8
  %49 = load ptr, ptr %3, align 8
  %.not2736 = icmp eq ptr %49, null
  %spec.select = select i1 %.not2736, i32 0, i32 11
  br label %SzReadUInt32.exit

50:                                               ; preds = %SzReadBoolVector2.exit
  %51 = load ptr, ptr %4, align 8
  %52 = shl nuw nsw i64 %1, 2
  %53 = tail call ptr %51(ptr noundef nonnull %4, i64 noundef %52) #11
  store ptr %53, ptr %3, align 8
  %54 = icmp eq ptr %53, null
  br i1 %54, label %SzReadUInt32.exit, label %.lr.ph

.lr.ph:                                           ; preds = %50, %SzReadUInt32.exit.thread
  %.02342 = phi i64 [ %75, %SzReadUInt32.exit.thread ], [ 0, %50 ]
  %55 = load ptr, ptr %2, align 8
  %56 = getelementptr inbounds nuw i8, ptr %55, i64 %.02342
  %57 = load i8, ptr %56, align 1
  %.not28 = icmp eq i8 %57, 0
  br i1 %.not28, label %SzReadUInt32.exit.thread, label %58

58:                                               ; preds = %.lr.ph
  %59 = load ptr, ptr %3, align 8
  %60 = getelementptr inbounds nuw i32, ptr %59, i64 %.02342
  store i32 0, ptr %60, align 4
  br label %61

61:                                               ; preds = %64, %58
  %.0815.i = phi i32 [ 0, %58 ], [ %74, %64 ]
  %62 = load i64, ptr %6, align 8
  %63 = icmp eq i64 %62, 0
  br i1 %63, label %SzReadUInt32.exit, label %64

64:                                               ; preds = %61
  %65 = add i64 %62, -1
  store i64 %65, ptr %6, align 8
  %66 = load ptr, ptr %0, align 8
  %67 = getelementptr inbounds nuw i8, ptr %66, i64 1
  store ptr %67, ptr %0, align 8
  %68 = load i8, ptr %66, align 1
  %69 = zext i8 %68 to i32
  %70 = shl nuw nsw i32 %.0815.i, 3
  %71 = shl nuw i32 %69, %70
  %72 = load i32, ptr %60, align 4
  %73 = or i32 %71, %72
  store i32 %73, ptr %60, align 4
  %74 = add nuw nsw i32 %.0815.i, 1
  %exitcond.not.i30 = icmp eq i32 %74, 4
  br i1 %exitcond.not.i30, label %SzReadUInt32.exit.thread, label %61

SzReadUInt32.exit.thread:                         ; preds = %64, %.lr.ph
  %75 = add nuw nsw i64 %.02342, 1
  %exitcond.not = icmp eq i64 %75, %1
  br i1 %exitcond.not, label %SzReadUInt32.exit, label %.lr.ph

SzReadUInt32.exit:                                ; preds = %24, %SzReadUInt32.exit.thread, %61, %SzReadBoolVector2.exit.thread34, %19, %16, %5, %41, %38, %50, %SzReadBoolVector2.exit
  %.0 = phi i32 [ 11, %SzReadBoolVector2.exit ], [ 2, %50 ], [ 2, %19 ], [ 11, %16 ], [ 16, %5 ], [ 2, %41 ], [ 11, %38 ], [ %spec.select, %SzReadBoolVector2.exit.thread34 ], [ 16, %61 ], [ 0, %SzReadUInt32.exit.thread ], [ 16, %24 ]
  ret i32 %.0
}